#include <math.h>
#include <stdio.h>
#include <stdlib.h>
#include <string.h>

int main()
{
	int a[105][105];
	int row,col,i,j,t=0,temp=0,count=0;
	scanf("%d%d",&row,&col);
	int sum=row*col;
	for(i=0;i<row;i++)
		for(j=0;j<col;j++)
			scanf("%d",&a[i][j]);
	while(1)
	{
		for(i=t;i<col-t;i++)
		{
			printf("%d\n",a[t][i]);
			count++;
		}
		if(count==sum)
			break;
		for (i=t+1;i<row-t;i++)
		{
			printf("%d\n",a[i][col-t-1]);
			count++;
		}
		if(count==sum)
			break;
		for (i=col-2-t;i>=t;i--)
		{
			printf("%d\n",a[row-t-1][i]);
			count++;
		}
        if(count==sum)
			break;
		for (i=row-2-t;i>t;i--)
		{
			printf("%d\n",a[i][t]);
            count++;
		}
        if(count==sum)
			break;
		t++;
	}
	return 0;
}


