; ModuleID = '46/1396.c'
source_filename = "46/1396.c"
target datalayout = "e-m:e-p270:32:32-p271:32:32-p272:64:64-i64:64-f80:128-n8:16:32:64-S128"
target triple = "x86_64-pc-linux-gnu"

@.str = private unnamed_addr constant [5 x i8] c"%d%d\00", align 1
@.str.1 = private unnamed_addr constant [3 x i8] c"%d\00", align 1
@.str.2 = private unnamed_addr constant [4 x i8] c"%d\0A\00", align 1

; Function Attrs: noinline nounwind uwtable
define dso_local i32 @main() #0 {
  %1 = alloca i32, align 4
  %2 = alloca [105 x [105 x i32]], align 16
  %3 = alloca i32, align 4
  %4 = alloca i32, align 4
  %5 = alloca i32, align 4
  %6 = alloca i32, align 4
  %7 = alloca i32, align 4
  %8 = alloca i32, align 4
  %9 = alloca i32, align 4
  %10 = alloca i32, align 4
  store i32 0, i32* %1, align 4
  store i32 0, i32* %7, align 4
  store i32 0, i32* %8, align 4
  store i32 0, i32* %9, align 4
  %11 = call i32 (i8*, ...) @__isoc99_scanf(i8* getelementptr inbounds ([5 x i8], [5 x i8]* @.str, i64 0, i64 0), i32* %3, i32* %4)
  %12 = load i32, i32* %3, align 4
  %13 = load i32, i32* %4, align 4
  %14 = mul nsw i32 %12, %13
  store i32 %14, i32* %10, align 4
  store i32 0, i32* %5, align 4
  br label %15

15:                                               ; preds = %36, %0
  %16 = load i32, i32* %5, align 4
  %17 = load i32, i32* %3, align 4
  %18 = icmp slt i32 %16, %17
  br i1 %18, label %19, label %39

19:                                               ; preds = %15
  store i32 0, i32* %6, align 4
  br label %20

20:                                               ; preds = %32, %19
  %21 = load i32, i32* %6, align 4
  %22 = load i32, i32* %4, align 4
  %23 = icmp slt i32 %21, %22
  br i1 %23, label %24, label %35

24:                                               ; preds = %20
  %25 = load i32, i32* %5, align 4
  %26 = sext i32 %25 to i64
  %27 = getelementptr inbounds [105 x [105 x i32]], [105 x [105 x i32]]* %2, i64 0, i64 %26
  %28 = load i32, i32* %6, align 4
  %29 = sext i32 %28 to i64
  %30 = getelementptr inbounds [105 x i32], [105 x i32]* %27, i64 0, i64 %29
  %31 = call i32 (i8*, ...) @__isoc99_scanf(i8* getelementptr inbounds ([3 x i8], [3 x i8]* @.str.1, i64 0, i64 0), i32* %30)
  br label %32

32:                                               ; preds = %24
  %33 = load i32, i32* %6, align 4
  %34 = add nsw i32 %33, 1
  store i32 %34, i32* %6, align 4
  br label %20

35:                                               ; preds = %20
  br label %36

36:                                               ; preds = %35
  %37 = load i32, i32* %5, align 4
  %38 = add nsw i32 %37, 1
  store i32 %38, i32* %5, align 4
  br label %15

39:                                               ; preds = %15
  br label %40

40:                                               ; preds = %39, %157
  %41 = load i32, i32* %7, align 4
  store i32 %41, i32* %5, align 4
  br label %42

42:                                               ; preds = %59, %40
  %43 = load i32, i32* %5, align 4
  %44 = load i32, i32* %4, align 4
  %45 = load i32, i32* %7, align 4
  %46 = sub nsw i32 %44, %45
  %47 = icmp slt i32 %43, %46
  br i1 %47, label %48, label %62

48:                                               ; preds = %42
  %49 = load i32, i32* %7, align 4
  %50 = sext i32 %49 to i64
  %51 = getelementptr inbounds [105 x [105 x i32]], [105 x [105 x i32]]* %2, i64 0, i64 %50
  %52 = load i32, i32* %5, align 4
  %53 = sext i32 %52 to i64
  %54 = getelementptr inbounds [105 x i32], [105 x i32]* %51, i64 0, i64 %53
  %55 = load i32, i32* %54, align 4
  %56 = call i32 (i8*, ...) @printf(i8* getelementptr inbounds ([4 x i8], [4 x i8]* @.str.2, i64 0, i64 0), i32 %55)
  %57 = load i32, i32* %9, align 4
  %58 = add nsw i32 %57, 1
  store i32 %58, i32* %9, align 4
  br label %59

59:                                               ; preds = %48
  %60 = load i32, i32* %5, align 4
  %61 = add nsw i32 %60, 1
  store i32 %61, i32* %5, align 4
  br label %42

62:                                               ; preds = %42
  %63 = load i32, i32* %9, align 4
  %64 = load i32, i32* %10, align 4
  %65 = icmp eq i32 %63, %64
  br i1 %65, label %66, label %67

66:                                               ; preds = %62
  br label %160

67:                                               ; preds = %62
  %68 = load i32, i32* %7, align 4
  %69 = add nsw i32 %68, 1
  store i32 %69, i32* %5, align 4
  br label %70

70:                                               ; preds = %90, %67
  %71 = load i32, i32* %5, align 4
  %72 = load i32, i32* %3, align 4
  %73 = load i32, i32* %7, align 4
  %74 = sub nsw i32 %72, %73
  %75 = icmp slt i32 %71, %74
  br i1 %75, label %76, label %93

76:                                               ; preds = %70
  %77 = load i32, i32* %5, align 4
  %78 = sext i32 %77 to i64
  %79 = getelementptr inbounds [105 x [105 x i32]], [105 x [105 x i32]]* %2, i64 0, i64 %78
  %80 = load i32, i32* %4, align 4
  %81 = load i32, i32* %7, align 4
  %82 = sub nsw i32 %80, %81
  %83 = sub nsw i32 %82, 1
  %84 = sext i32 %83 to i64
  %85 = getelementptr inbounds [105 x i32], [105 x i32]* %79, i64 0, i64 %84
  %86 = load i32, i32* %85, align 4
  %87 = call i32 (i8*, ...) @printf(i8* getelementptr inbounds ([4 x i8], [4 x i8]* @.str.2, i64 0, i64 0), i32 %86)
  %88 = load i32, i32* %9, align 4
  %89 = add nsw i32 %88, 1
  store i32 %89, i32* %9, align 4
  br label %90

90:                                               ; preds = %76
  %91 = load i32, i32* %5, align 4
  %92 = add nsw i32 %91, 1
  store i32 %92, i32* %5, align 4
  br label %70

93:                                               ; preds = %70
  %94 = load i32, i32* %9, align 4
  %95 = load i32, i32* %10, align 4
  %96 = icmp eq i32 %94, %95
  br i1 %96, label %97, label %98

97:                                               ; preds = %93
  br label %160

98:                                               ; preds = %93
  %99 = load i32, i32* %4, align 4
  %100 = sub nsw i32 %99, 2
  %101 = load i32, i32* %7, align 4
  %102 = sub nsw i32 %100, %101
  store i32 %102, i32* %5, align 4
  br label %103

103:                                              ; preds = %121, %98
  %104 = load i32, i32* %5, align 4
  %105 = load i32, i32* %7, align 4
  %106 = icmp sge i32 %104, %105
  br i1 %106, label %107, label %124

107:                                              ; preds = %103
  %108 = load i32, i32* %3, align 4
  %109 = load i32, i32* %7, align 4
  %110 = sub nsw i32 %108, %109
  %111 = sub nsw i32 %110, 1
  %112 = sext i32 %111 to i64
  %113 = getelementptr inbounds [105 x [105 x i32]], [105 x [105 x i32]]* %2, i64 0, i64 %112
  %114 = load i32, i32* %5, align 4
  %115 = sext i32 %114 to i64
  %116 = getelementptr inbounds [105 x i32], [105 x i32]* %113, i64 0, i64 %115
  %117 = load i32, i32* %116, align 4
  %118 = call i32 (i8*, ...) @printf(i8* getelementptr inbounds ([4 x i8], [4 x i8]* @.str.2, i64 0, i64 0), i32 %117)
  %119 = load i32, i32* %9, align 4
  %120 = add nsw i32 %119, 1
  store i32 %120, i32* %9, align 4
  br label %121

121:                                              ; preds = %107
  %122 = load i32, i32* %5, align 4
  %123 = add nsw i32 %122, -1
  store i32 %123, i32* %5, align 4
  br label %103

124:                                              ; preds = %103
  %125 = load i32, i32* %9, align 4
  %126 = load i32, i32* %10, align 4
  %127 = icmp eq i32 %125, %126
  br i1 %127, label %128, label %129

128:                                              ; preds = %124
  br label %160

129:                                              ; preds = %124
  %130 = load i32, i32* %3, align 4
  %131 = sub nsw i32 %130, 2
  %132 = load i32, i32* %7, align 4
  %133 = sub nsw i32 %131, %132
  store i32 %133, i32* %5, align 4
  br label %134

134:                                              ; preds = %149, %129
  %135 = load i32, i32* %5, align 4
  %136 = load i32, i32* %7, align 4
  %137 = icmp sgt i32 %135, %136
  br i1 %137, label %138, label %152

138:                                              ; preds = %134
  %139 = load i32, i32* %5, align 4
  %140 = sext i32 %139 to i64
  %141 = getelementptr inbounds [105 x [105 x i32]], [105 x [105 x i32]]* %2, i64 0, i64 %140
  %142 = load i32, i32* %7, align 4
  %143 = sext i32 %142 to i64
  %144 = getelementptr inbounds [105 x i32], [105 x i32]* %141, i64 0, i64 %143
  %145 = load i32, i32* %144, align 4
  %146 = call i32 (i8*, ...) @printf(i8* getelementptr inbounds ([4 x i8], [4 x i8]* @.str.2, i64 0, i64 0), i32 %145)
  %147 = load i32, i32* %9, align 4
  %148 = add nsw i32 %147, 1
  store i32 %148, i32* %9, align 4
  br label %149

149:                                              ; preds = %138
  %150 = load i32, i32* %5, align 4
  %151 = add nsw i32 %150, -1
  store i32 %151, i32* %5, align 4
  br label %134

152:                                              ; preds = %134
  %153 = load i32, i32* %9, align 4
  %154 = load i32, i32* %10, align 4
  %155 = icmp eq i32 %153, %154
  br i1 %155, label %156, label %157

156:                                              ; preds = %152
  br label %160

157:                                              ; preds = %152
  %158 = load i32, i32* %7, align 4
  %159 = add nsw i32 %158, 1
  store i32 %159, i32* %7, align 4
  br label %40

160:                                              ; preds = %156, %128, %97, %66
  ret i32 0
}

declare dso_local i32 @__isoc99_scanf(i8*, ...) #1

declare dso_local i32 @printf(i8*, ...) #1


!llvm.module.flags = !{!0}
!llvm.ident = !{!1}

!0 = !{i32 1, !"wchar_size", i32 4}
!1 = !{!"clang version 10.0.0-4ubuntu1 "}
